target datalayout = "e-m:e-p270:32:32-p271:32:32-p272:64:64-i64:64-i128:128-f80:128-n8:16:32:64-S128"
target triple = "x86_64-pc-linux-gnu"

%struct.FBufferStruct = type { i32, i64, i64, i64, ptr, i64 }

; Function Attrs: nounwind sspstrong uwtable
define internal void @fbuffer_do_inc_capa(ptr noundef %0, i64 noundef %1) #0 {
  %3 = alloca ptr, align 8
  %4 = alloca i64, align 8
  %5 = alloca i64, align 8
  store ptr %0, ptr %3, align 8, !tbaa !57
  store i64 %1, ptr %4, align 8, !tbaa !6
  %6 = load ptr, ptr %3, align 8, !tbaa !57
  %7 = getelementptr inbounds nuw %struct.FBufferStruct, ptr %6, i32 0, i32 5
  %8 = load i64, ptr %7, align 8, !tbaa !34
  %9 = icmp ne i64 %8, 0
  %10 = xor i1 %9, true
  %11 = xor i1 %10, true
  %12 = zext i1 %11 to i32
  %13 = sext i32 %12 to i64
  %14 = call i64 @llvm.expect.i64(i64 %13, i64 0)
  %15 = icmp ne i64 %14, 0
  br i1 %15, label %16, label %39

16:                                               ; preds = %2
  %17 = load ptr, ptr %3, align 8, !tbaa !57
  %18 = getelementptr inbounds nuw %struct.FBufferStruct, ptr %17, i32 0, i32 3
  %19 = load i64, ptr %18, align 8, !tbaa !64
  %20 = icmp ult i64 %19, 16383
  br i1 %20, label %21, label %23

21:                                               ; preds = %16
  %22 = load ptr, ptr %3, align 8, !tbaa !57
  call void @fbuffer_realloc(ptr noundef %22, i64 noundef 16383)
  br label %25

23:                                               ; preds = %16
  %24 = load ptr, ptr %3, align 8, !tbaa !57
  call void @fbuffer_flush(ptr noundef %24)
  br label %25

25:                                               ; preds = %23, %21
  %26 = load i64, ptr %4, align 8, !tbaa !6
  %27 = load ptr, ptr %3, align 8, !tbaa !57
  %28 = getelementptr inbounds nuw %struct.FBufferStruct, ptr %27, i32 0, i32 3
  %29 = load i64, ptr %28, align 8, !tbaa !64
  %30 = icmp ult i64 %26, %29
  %31 = xor i1 %30, true
  %32 = xor i1 %31, true
  %33 = zext i1 %32 to i32
  %34 = sext i32 %33 to i64
  %35 = call i64 @llvm.expect.i64(i64 %34, i64 1)
  %36 = icmp ne i64 %35, 0
  br i1 %36, label %37, label %38

37:                                               ; preds = %25
  br label %82

38:                                               ; preds = %25
  br label %39

39:                                               ; preds = %38, %2
  call void @llvm.lifetime.start.p0(i64 8, ptr %5) #27
  %40 = load ptr, ptr %3, align 8, !tbaa !57
  %41 = getelementptr inbounds nuw %struct.FBufferStruct, ptr %40, i32 0, i32 4
  %42 = load ptr, ptr %41, align 8, !tbaa !63
  %43 = icmp ne ptr %42, null
  %44 = xor i1 %43, true
  %45 = xor i1 %44, true
  %46 = xor i1 %45, true
  %47 = zext i1 %46 to i32
  %48 = sext i32 %47 to i64
  %49 = call i64 @llvm.expect.i64(i64 %48, i64 0)
  %50 = icmp ne i64 %49, 0
  br i1 %50, label %51, label %63

51:                                               ; preds = %39
  %52 = load ptr, ptr %3, align 8, !tbaa !57
  %53 = getelementptr inbounds nuw %struct.FBufferStruct, ptr %52, i32 0, i32 1
  %54 = load i64, ptr %53, align 8, !tbaa !61
  %55 = call noalias nonnull ptr @ruby_xmalloc2(i64 noundef %54, i64 noundef 1) #36
  %56 = load ptr, ptr %3, align 8, !tbaa !57
  %57 = getelementptr inbounds nuw %struct.FBufferStruct, ptr %56, i32 0, i32 4
  store ptr %55, ptr %57, align 8, !tbaa !63
  %58 = load ptr, ptr %3, align 8, !tbaa !57
  %59 = getelementptr inbounds nuw %struct.FBufferStruct, ptr %58, i32 0, i32 1
  %60 = load i64, ptr %59, align 8, !tbaa !61
  %61 = load ptr, ptr %3, align 8, !tbaa !57
  %62 = getelementptr inbounds nuw %struct.FBufferStruct, ptr %61, i32 0, i32 3
  store i64 %60, ptr %62, align 8, !tbaa !64
  br label %63

63:                                               ; preds = %51, %39
  %64 = load ptr, ptr %3, align 8, !tbaa !57
  %65 = getelementptr inbounds nuw %struct.FBufferStruct, ptr %64, i32 0, i32 3
  %66 = load i64, ptr %65, align 8, !tbaa !64
  store i64 %66, ptr %5, align 8, !tbaa !6
  br label %67

67:                                               ; preds = %76, %63
  %68 = load i64, ptr %4, align 8, !tbaa !6
  %69 = load i64, ptr %5, align 8, !tbaa !6
  %70 = load ptr, ptr %3, align 8, !tbaa !57
  %71 = getelementptr inbounds nuw %struct.FBufferStruct, ptr %70, i32 0, i32 2
  %72 = load i64, ptr %71, align 8, !tbaa !65
  %73 = sub i64 %69, %72
  %74 = icmp ugt i64 %68, %73
  br i1 %74, label %75, label %79

75:                                               ; preds = %67
  br label %76

76:                                               ; preds = %75
  %77 = load i64, ptr %5, align 8, !tbaa !6
  %78 = shl i64 %77, 1
  store i64 %78, ptr %5, align 8, !tbaa !6
  br label %67

79:                                               ; preds = %67
  %80 = load ptr, ptr %3, align 8, !tbaa !57
  %81 = load i64, ptr %5, align 8, !tbaa !6
  call void @fbuffer_realloc(ptr noundef %80, i64 noundef %81)
  call void @llvm.lifetime.end.p0(i64 8, ptr %5) #27
  br label %82

82:                                               ; preds = %79, %37
  ret void
}