; Function Attrs: nounwind sspstrong uwtable
define internal fastcc void @fbuffer_do_inc_capa(ptr noundef captures(none) %0, i64 noundef range(i64 1, 0) %1) unnamed_addr #0 {
  %3 = getelementptr inbounds nuw i8, ptr %0, i64 40
  %4 = load i64, ptr %3, align 8, !tbaa !41
  %.not = icmp eq i64 %4, 0
  br i1 %.not, label %14, label %5, !prof !68

5:                                                ; preds = %2
  %6 = getelementptr inbounds nuw i8, ptr %0, i64 24
  %7 = load i64, ptr %6, align 8, !tbaa !47
  %8 = icmp ult i64 %7, 16383
  br i1 %8, label %9, label %10

9:                                                ; preds = %5
  tail call fastcc void @fbuffer_realloc(ptr noundef nonnull %0, i64 noundef 16383)
  br label %11

10:                                               ; preds = %5
  tail call fastcc void @fbuffer_flush(ptr noundef nonnull %0)
  br label %11

11:                                               ; preds = %10, %9
  %12 = load i64, ptr %6, align 8, !tbaa !47
  %13 = icmp ult i64 %1, %12
  br i1 %13, label %fbuffer_realloc.exit, label %14, !prof !68

14:                                               ; preds = %11, %2
  %15 = getelementptr inbounds nuw i8, ptr %0, i64 32
  %16 = load ptr, ptr %15, align 8, !tbaa !46
  %.not17 = icmp eq ptr %16, null
  br i1 %.not17, label %17, label %._crit_edge, !prof !58

._crit_edge:                                      ; preds = %14
  %.phi.trans.insert = getelementptr inbounds nuw i8, ptr %0, i64 24
  %.pre = load i64, ptr %.phi.trans.insert, align 8, !tbaa !47
  br label %23

17:                                               ; preds = %14
  %18 = getelementptr inbounds nuw i8, ptr %0, i64 8
  %19 = load i64, ptr %18, align 8, !tbaa !44
  %20 = tail call noalias nonnull ptr @ruby_xmalloc2(i64 noundef %19, i64 noundef 1) #29
  store ptr %20, ptr %15, align 8, !tbaa !46
  %21 = load i64, ptr %18, align 8, !tbaa !44
  %22 = getelementptr inbounds nuw i8, ptr %0, i64 24
  store i64 %21, ptr %22, align 8, !tbaa !47
  br label %23

23:                                               ; preds = %._crit_edge, %17
  %24 = phi ptr [ %16, %._crit_edge ], [ %20, %17 ]
  %25 = phi i64 [ %.pre, %._crit_edge ], [ %21, %17 ]
  %26 = getelementptr inbounds nuw i8, ptr %0, i64 24
  %27 = getelementptr inbounds nuw i8, ptr %0, i64 16
  %28 = load i64, ptr %27, align 8, !tbaa !56
  br label %29

29:                                               ; preds = %29, %23
  %.0 = phi i64 [ %25, %23 ], [ %32, %29 ]
  %30 = sub i64 %.0, %28
  %31 = icmp ugt i64 %1, %30
  %32 = shl i64 %.0, 1
  br i1 %31, label %29, label %33

33:                                               ; preds = %29
  %34 = icmp ugt i64 %.0, %25
  br i1 %34, label %35, label %fbuffer_realloc.exit

35:                                               ; preds = %33
  %36 = load i32, ptr %0, align 8, !tbaa !45
  %37 = icmp eq i32 %36, 1
  br i1 %37, label %rbimpl_size_mul_or_raise.exit.i, label %41

rbimpl_size_mul_or_raise.exit.i:                  ; preds = %35
  %38 = tail call noalias nonnull ptr @ruby_xmalloc2(i64 noundef %.0, i64 noundef 1) #29
  store ptr %38, ptr %15, align 8, !tbaa !46
  store i32 0, ptr %0, align 8, !tbaa !45
  %39 = load i64, ptr %27, align 8, !tbaa !56
  %.not.i.i = icmp eq i64 %39, 0
  br i1 %.not.i.i, label %ruby_nonempty_memcpy.exit.i, label %40

40:                                               ; preds = %rbimpl_size_mul_or_raise.exit.i
  tail call void @llvm.memcpy.p0.p0.i64(ptr noundef nonnull align 1 %38, ptr noundef nonnull readonly align 1 %24, i64 noundef range(i64 1, 0) %39, i1 noundef false) #22
  br label %ruby_nonempty_memcpy.exit.i

41:                                               ; preds = %35
  %42 = tail call nonnull ptr @ruby_xrealloc2(ptr noundef nonnull %24, i64 noundef %.0, i64 noundef 1) #30
  store ptr %42, ptr %15, align 8, !tbaa !46
  br label %ruby_nonempty_memcpy.exit.i

ruby_nonempty_memcpy.exit.i:                      ; preds = %41, %40, %rbimpl_size_mul_or_raise.exit.i
  store i64 %.0, ptr %26, align 8, !tbaa !47
  br label %fbuffer_realloc.exit

fbuffer_realloc.exit:                             ; preds = %ruby_nonempty_memcpy.exit.i, %33, %11
  ret void
}